target datalayout = "e-m:e-p270:32:32-p271:32:32-p272:64:64-i64:64-i128:128-f80:128-n8:16:32:64-S128"
target triple = "x86_64-pc-linux-gnu"

@bio_err = external global ptr, align 8
@.str.121 = private unnamed_addr constant [20 x i8] c"File name too long\0A\00", align 1
@.str.122 = private unnamed_addr constant [6 x i8] c"%s.%s\00", align 1
@.str.125 = private unnamed_addr constant [27 x i8] c"Unable to rename %s to %s\0A\00", align 1
@.str.126 = private unnamed_addr constant [7 x i8] c"reason\00", align 1
@.str.128 = private unnamed_addr constant [8 x i8] c"%s.attr\00", align 1
@.str.133 = private unnamed_addr constant [11 x i8] c"%s.attr.%s\00", align 1

; Function Attrs: nounwind uwtable
define dso_local i32 @rotate_index(ptr noundef %0, ptr noundef %1, ptr noundef %2) #0 {
  %4 = alloca i32, align 4
  %5 = alloca ptr, align 8
  %6 = alloca ptr, align 8
  %7 = alloca ptr, align 8
  %8 = alloca [5 x [256 x i8]], align 16
  %9 = alloca i32, align 4
  %10 = alloca i32, align 4
  %11 = alloca i32, align 4
  store ptr %0, ptr %5, align 8, !tbaa !9
  store ptr %1, ptr %6, align 8, !tbaa !9
  store ptr %2, ptr %7, align 8, !tbaa !9
  call void @llvm.lifetime.start.p0(i64 1280, ptr %8) #12
  call void @llvm.lifetime.start.p0(i64 4, ptr %9) #12
  call void @llvm.lifetime.start.p0(i64 4, ptr %10) #12
  %12 = load ptr, ptr %5, align 8, !tbaa !9
  %13 = call i64 @strlen(ptr noundef %12) #14
  %14 = load ptr, ptr %7, align 8, !tbaa !9
  %15 = call i64 @strlen(ptr noundef %14) #14
  %16 = add i64 %13, %15
  %17 = trunc i64 %16 to i32
  store i32 %17, ptr %9, align 4, !tbaa !25
  %18 = load ptr, ptr %5, align 8, !tbaa !9
  %19 = call i64 @strlen(ptr noundef %18) #14
  %20 = load ptr, ptr %6, align 8, !tbaa !9
  %21 = call i64 @strlen(ptr noundef %20) #14
  %22 = add i64 %19, %21
  %23 = trunc i64 %22 to i32
  store i32 %23, ptr %10, align 4, !tbaa !25
  %24 = load i32, ptr %9, align 4, !tbaa !25
  %25 = load i32, ptr %10, align 4, !tbaa !25
  %26 = icmp sgt i32 %24, %25
  br i1 %26, label %27, label %29

27:                                               ; preds = %3
  %28 = load i32, ptr %9, align 4, !tbaa !25
  store i32 %28, ptr %10, align 4, !tbaa !25
  br label %29

29:                                               ; preds = %27, %3
  %30 = load i32, ptr %10, align 4, !tbaa !25
  %31 = add nsw i32 %30, 6
  %32 = icmp sge i32 %31, 256
  br i1 %32, label %33, label %36

33:                                               ; preds = %29
  %34 = load ptr, ptr @bio_err, align 8, !tbaa !35
  %35 = call i32 (ptr, ptr, ...) @BIO_printf(ptr noundef %34, ptr noundef @.str.121)
  br label %154

36:                                               ; preds = %29
  %37 = getelementptr inbounds [5 x [256 x i8]], ptr %8, i64 0, i64 4
  %38 = getelementptr inbounds [256 x i8], ptr %37, i64 0, i64 0
  %39 = load ptr, ptr %5, align 8, !tbaa !9
  %40 = call i32 (ptr, i64, ptr, ...) @BIO_snprintf(ptr noundef %38, i64 noundef 256, ptr noundef @.str.128, ptr noundef %39)
  %41 = getelementptr inbounds [5 x [256 x i8]], ptr %8, i64 0, i64 3
  %42 = getelementptr inbounds [256 x i8], ptr %41, i64 0, i64 0
  %43 = load ptr, ptr %5, align 8, !tbaa !9
  %44 = load ptr, ptr %7, align 8, !tbaa !9
  %45 = call i32 (ptr, i64, ptr, ...) @BIO_snprintf(ptr noundef %42, i64 noundef 256, ptr noundef @.str.133, ptr noundef %43, ptr noundef %44)
  %46 = getelementptr inbounds [5 x [256 x i8]], ptr %8, i64 0, i64 2
  %47 = getelementptr inbounds [256 x i8], ptr %46, i64 0, i64 0
  %48 = load ptr, ptr %5, align 8, !tbaa !9
  %49 = load ptr, ptr %6, align 8, !tbaa !9
  %50 = call i32 (ptr, i64, ptr, ...) @BIO_snprintf(ptr noundef %47, i64 noundef 256, ptr noundef @.str.133, ptr noundef %48, ptr noundef %49)
  %51 = getelementptr inbounds [5 x [256 x i8]], ptr %8, i64 0, i64 1
  %52 = getelementptr inbounds [256 x i8], ptr %51, i64 0, i64 0
  %53 = load ptr, ptr %5, align 8, !tbaa !9
  %54 = load ptr, ptr %7, align 8, !tbaa !9
  %55 = call i32 (ptr, i64, ptr, ...) @BIO_snprintf(ptr noundef %52, i64 noundef 256, ptr noundef @.str.122, ptr noundef %53, ptr noundef %54)
  %56 = getelementptr inbounds [5 x [256 x i8]], ptr %8, i64 0, i64 0
  %57 = getelementptr inbounds [256 x i8], ptr %56, i64 0, i64 0
  %58 = load ptr, ptr %5, align 8, !tbaa !9
  %59 = load ptr, ptr %6, align 8, !tbaa !9
  %60 = call i32 (ptr, i64, ptr, ...) @BIO_snprintf(ptr noundef %57, i64 noundef 256, ptr noundef @.str.122, ptr noundef %58, ptr noundef %59)
  %61 = load ptr, ptr %5, align 8, !tbaa !9
  %62 = getelementptr inbounds [5 x [256 x i8]], ptr %8, i64 0, i64 1
  %63 = getelementptr inbounds [256 x i8], ptr %62, i64 0, i64 0
  %64 = call i32 @rename(ptr noundef %61, ptr noundef %63) #12
  %65 = icmp slt i32 %64, 0
  br i1 %65, label %66, label %80

66:                                               ; preds = %36
  %67 = call ptr @__errno_location() #13
  %68 = load i32, ptr %67, align 4, !tbaa !25
  %69 = icmp ne i32 %68, 2
  br i1 %69, label %70, label %80

70:                                               ; preds = %66
  %71 = call ptr @__errno_location() #13
  %72 = load i32, ptr %71, align 4, !tbaa !25
  %73 = icmp ne i32 %72, 20
  br i1 %73, label %74, label %80

74:                                               ; preds = %70
  %75 = load ptr, ptr @bio_err, align 8, !tbaa !35
  %76 = load ptr, ptr %5, align 8, !tbaa !9
  %77 = getelementptr inbounds [5 x [256 x i8]], ptr %8, i64 0, i64 1
  %78 = getelementptr inbounds [256 x i8], ptr %77, i64 0, i64 0
  %79 = call i32 (ptr, ptr, ...) @BIO_printf(ptr noundef %75, ptr noundef @.str.125, ptr noundef %76, ptr noundef %78)
  call void @perror(ptr noundef @.str.126)
  br label %154

80:                                               ; preds = %70, %66, %36
  %81 = getelementptr inbounds [5 x [256 x i8]], ptr %8, i64 0, i64 0
  %82 = getelementptr inbounds [256 x i8], ptr %81, i64 0, i64 0
  %83 = load ptr, ptr %5, align 8, !tbaa !9
  %84 = call i32 @rename(ptr noundef %82, ptr noundef %83) #12
  %85 = icmp slt i32 %84, 0
  br i1 %85, label %86, label %96

86:                                               ; preds = %80
  %87 = load ptr, ptr @bio_err, align 8, !tbaa !35
  %88 = getelementptr inbounds [5 x [256 x i8]], ptr %8, i64 0, i64 0
  %89 = getelementptr inbounds [256 x i8], ptr %88, i64 0, i64 0
  %90 = load ptr, ptr %5, align 8, !tbaa !9
  %91 = call i32 (ptr, ptr, ...) @BIO_printf(ptr noundef %87, ptr noundef @.str.125, ptr noundef %89, ptr noundef %90)
  call void @perror(ptr noundef @.str.126)
  %92 = getelementptr inbounds [5 x [256 x i8]], ptr %8, i64 0, i64 1
  %93 = getelementptr inbounds [256 x i8], ptr %92, i64 0, i64 0
  %94 = load ptr, ptr %5, align 8, !tbaa !9
  %95 = call i32 @rename(ptr noundef %93, ptr noundef %94) #12
  br label %154

96:                                               ; preds = %80
  %97 = getelementptr inbounds [5 x [256 x i8]], ptr %8, i64 0, i64 4
  %98 = getelementptr inbounds [256 x i8], ptr %97, i64 0, i64 0
  %99 = getelementptr inbounds [5 x [256 x i8]], ptr %8, i64 0, i64 3
  %100 = getelementptr inbounds [256 x i8], ptr %99, i64 0, i64 0
  %101 = call i32 @rename(ptr noundef %98, ptr noundef %100) #12
  %102 = icmp slt i32 %101, 0
  br i1 %102, label %103, label %126

103:                                              ; preds = %96
  %104 = call ptr @__errno_location() #13
  %105 = load i32, ptr %104, align 4, !tbaa !25
  %106 = icmp ne i32 %105, 2
  br i1 %106, label %107, label %126

107:                                              ; preds = %103
  %108 = call ptr @__errno_location() #13
  %109 = load i32, ptr %108, align 4, !tbaa !25
  %110 = icmp ne i32 %109, 20
  br i1 %110, label %111, label %126

111:                                              ; preds = %107
  %112 = load ptr, ptr @bio_err, align 8, !tbaa !35
  %113 = getelementptr inbounds [5 x [256 x i8]], ptr %8, i64 0, i64 4
  %114 = getelementptr inbounds [256 x i8], ptr %113, i64 0, i64 0
  %115 = getelementptr inbounds [5 x [256 x i8]], ptr %8, i64 0, i64 3
  %116 = getelementptr inbounds [256 x i8], ptr %115, i64 0, i64 0
  %117 = call i32 (ptr, ptr, ...) @BIO_printf(ptr noundef %112, ptr noundef @.str.125, ptr noundef %114, ptr noundef %116)
  call void @perror(ptr noundef @.str.126)
  %118 = load ptr, ptr %5, align 8, !tbaa !9
  %119 = getelementptr inbounds [5 x [256 x i8]], ptr %8, i64 0, i64 0
  %120 = getelementptr inbounds [256 x i8], ptr %119, i64 0, i64 0
  %121 = call i32 @rename(ptr noundef %118, ptr noundef %120) #12
  %122 = getelementptr inbounds [5 x [256 x i8]], ptr %8, i64 0, i64 1
  %123 = getelementptr inbounds [256 x i8], ptr %122, i64 0, i64 0
  %124 = load ptr, ptr %5, align 8, !tbaa !9
  %125 = call i32 @rename(ptr noundef %123, ptr noundef %124) #12
  br label %154

126:                                              ; preds = %107, %103, %96
  %127 = getelementptr inbounds [5 x [256 x i8]], ptr %8, i64 0, i64 2
  %128 = getelementptr inbounds [256 x i8], ptr %127, i64 0, i64 0
  %129 = getelementptr inbounds [5 x [256 x i8]], ptr %8, i64 0, i64 4
  %130 = getelementptr inbounds [256 x i8], ptr %129, i64 0, i64 0
  %131 = call i32 @rename(ptr noundef %128, ptr noundef %130) #12
  %132 = icmp slt i32 %131, 0
  br i1 %132, label %133, label %153

133:                                              ; preds = %126
  %134 = load ptr, ptr @bio_err, align 8, !tbaa !35
  %135 = getelementptr inbounds [5 x [256 x i8]], ptr %8, i64 0, i64 2
  %136 = getelementptr inbounds [256 x i8], ptr %135, i64 0, i64 0
  %137 = getelementptr inbounds [5 x [256 x i8]], ptr %8, i64 0, i64 4
  %138 = getelementptr inbounds [256 x i8], ptr %137, i64 0, i64 0
  %139 = call i32 (ptr, ptr, ...) @BIO_printf(ptr noundef %134, ptr noundef @.str.125, ptr noundef %136, ptr noundef %138)
  call void @perror(ptr noundef @.str.126)
  %140 = getelementptr inbounds [5 x [256 x i8]], ptr %8, i64 0, i64 3
  %141 = getelementptr inbounds [256 x i8], ptr %140, i64 0, i64 0
  %142 = getelementptr inbounds [5 x [256 x i8]], ptr %8, i64 0, i64 4
  %143 = getelementptr inbounds [256 x i8], ptr %142, i64 0, i64 0
  %144 = call i32 @rename(ptr noundef %141, ptr noundef %143) #12
  %145 = load ptr, ptr %5, align 8, !tbaa !9
  %146 = getelementptr inbounds [5 x [256 x i8]], ptr %8, i64 0, i64 0
  %147 = getelementptr inbounds [256 x i8], ptr %146, i64 0, i64 0
  %148 = call i32 @rename(ptr noundef %145, ptr noundef %147) #12
  %149 = getelementptr inbounds [5 x [256 x i8]], ptr %8, i64 0, i64 1
  %150 = getelementptr inbounds [256 x i8], ptr %149, i64 0, i64 0
  %151 = load ptr, ptr %5, align 8, !tbaa !9
  %152 = call i32 @rename(ptr noundef %150, ptr noundef %151) #12
  br label %154

153:                                              ; preds = %126
  store i32 1, ptr %4, align 4
  store i32 1, ptr %11, align 4
  br label %156

154:                                              ; preds = %133, %111, %86, %74, %33
  %155 = load ptr, ptr @bio_err, align 8, !tbaa !35
  call void @ERR_print_errors(ptr noundef %155)
  store i32 0, ptr %4, align 4
  store i32 1, ptr %11, align 4
  br label %156

156:                                              ; preds = %154, %153
  call void @llvm.lifetime.end.p0(i64 4, ptr %10) #12
  call void @llvm.lifetime.end.p0(i64 4, ptr %9) #12
  call void @llvm.lifetime.end.p0(i64 1280, ptr %8) #12
  %157 = load i32, ptr %4, align 4
  ret i32 %157
}