; Function Attrs: nounwind uwtable
define dso_local range(i32 0, 2) i32 @rotate_index(ptr noundef %0, ptr noundef %1, ptr noundef %2) local_unnamed_addr #0 {
  %4 = alloca [5 x [256 x i8]], align 16
  call void @llvm.lifetime.start.p0(i64 1280, ptr nonnull %4) #27
  %5 = tail call i64 @strlen(ptr noundef nonnull dereferenceable(1) %0) #29
  %6 = tail call i64 @strlen(ptr noundef nonnull dereferenceable(1) %2) #29
  %7 = add i64 %6, %5
  %8 = trunc i64 %7 to i32
  %9 = tail call i64 @strlen(ptr noundef nonnull dereferenceable(1) %1) #29
  %10 = add i64 %9, %5
  %11 = trunc i64 %10 to i32
  %spec.select = tail call i32 @llvm.smax.i32(i32 %8, i32 %11)
  %12 = icmp sgt i32 %spec.select, 249
  br i1 %12, label %13, label %16

13:                                               ; preds = %3
  %14 = load ptr, ptr @bio_err, align 8, !tbaa !26
  %15 = tail call i32 (ptr, ptr, ...) @BIO_printf(ptr noundef %14, ptr noundef nonnull @.str.121) #27
  br label %61

16:                                               ; preds = %3
  %17 = getelementptr inbounds nuw i8, ptr %4, i64 1024
  %18 = call i32 (ptr, i64, ptr, ...) @BIO_snprintf(ptr noundef nonnull %17, i64 noundef 256, ptr noundef nonnull @.str.128, ptr noundef nonnull %0) #27
  %19 = getelementptr inbounds nuw i8, ptr %4, i64 768
  %20 = call i32 (ptr, i64, ptr, ...) @BIO_snprintf(ptr noundef nonnull %19, i64 noundef 256, ptr noundef nonnull @.str.133, ptr noundef nonnull %0, ptr noundef nonnull %2) #27
  %21 = getelementptr inbounds nuw i8, ptr %4, i64 512
  %22 = call i32 (ptr, i64, ptr, ...) @BIO_snprintf(ptr noundef nonnull %21, i64 noundef 256, ptr noundef nonnull @.str.133, ptr noundef nonnull %0, ptr noundef nonnull %1) #27
  %23 = getelementptr inbounds nuw i8, ptr %4, i64 256
  %24 = call i32 (ptr, i64, ptr, ...) @BIO_snprintf(ptr noundef nonnull %23, i64 noundef 256, ptr noundef nonnull @.str.122, ptr noundef nonnull %0, ptr noundef nonnull %2) #27
  %25 = call i32 (ptr, i64, ptr, ...) @BIO_snprintf(ptr noundef nonnull %4, i64 noundef 256, ptr noundef nonnull @.str.122, ptr noundef nonnull %0, ptr noundef nonnull %1) #27
  %26 = call i32 @rename(ptr noundef nonnull %0, ptr noundef nonnull %23) #27
  %27 = icmp slt i32 %26, 0
  br i1 %27, label %28, label %34

28:                                               ; preds = %16
  %29 = tail call ptr @__errno_location() #28
  %30 = load i32, ptr %29, align 4, !tbaa !30
  switch i32 %30, label %31 [
    i32 2, label %34
    i32 20, label %34
  ]

31:                                               ; preds = %28
  %32 = load ptr, ptr @bio_err, align 8, !tbaa !26
  %33 = call i32 (ptr, ptr, ...) @BIO_printf(ptr noundef %32, ptr noundef nonnull @.str.125, ptr noundef nonnull %0, ptr noundef nonnull %23) #27
  call void @perror(ptr noundef nonnull @.str.126) #32
  br label %61

34:                                               ; preds = %28, %28, %16
  %35 = call i32 @rename(ptr noundef nonnull %4, ptr noundef nonnull %0) #27
  %36 = icmp slt i32 %35, 0
  br i1 %36, label %37, label %41

37:                                               ; preds = %34
  %38 = load ptr, ptr @bio_err, align 8, !tbaa !26
  %39 = call i32 (ptr, ptr, ...) @BIO_printf(ptr noundef %38, ptr noundef nonnull @.str.125, ptr noundef nonnull %4, ptr noundef nonnull %0) #27
  call void @perror(ptr noundef nonnull @.str.126) #32
  %40 = call i32 @rename(ptr noundef nonnull %23, ptr noundef nonnull %0) #27
  br label %61

41:                                               ; preds = %34
  %42 = call i32 @rename(ptr noundef nonnull %17, ptr noundef nonnull %19) #27
  %43 = icmp slt i32 %42, 0
  br i1 %43, label %44, label %52

44:                                               ; preds = %41
  %45 = tail call ptr @__errno_location() #28
  %46 = load i32, ptr %45, align 4, !tbaa !30
  switch i32 %46, label %47 [
    i32 2, label %52
    i32 20, label %52
  ]

47:                                               ; preds = %44
  %48 = load ptr, ptr @bio_err, align 8, !tbaa !26
  %49 = call i32 (ptr, ptr, ...) @BIO_printf(ptr noundef %48, ptr noundef nonnull @.str.125, ptr noundef nonnull %17, ptr noundef nonnull %19) #27
  call void @perror(ptr noundef nonnull @.str.126) #32
  %50 = call i32 @rename(ptr noundef nonnull %0, ptr noundef nonnull %4) #27
  %51 = call i32 @rename(ptr noundef nonnull %23, ptr noundef nonnull %0) #27
  br label %61

52:                                               ; preds = %44, %44, %41
  %53 = call i32 @rename(ptr noundef nonnull %21, ptr noundef nonnull %17) #27
  %54 = icmp slt i32 %53, 0
  br i1 %54, label %55, label %63

55:                                               ; preds = %52
  %56 = load ptr, ptr @bio_err, align 8, !tbaa !26
  %57 = call i32 (ptr, ptr, ...) @BIO_printf(ptr noundef %56, ptr noundef nonnull @.str.125, ptr noundef nonnull %21, ptr noundef nonnull %17) #27
  call void @perror(ptr noundef nonnull @.str.126) #32
  %58 = call i32 @rename(ptr noundef nonnull %19, ptr noundef nonnull %17) #27
  %59 = call i32 @rename(ptr noundef nonnull %0, ptr noundef nonnull %4) #27
  %60 = call i32 @rename(ptr noundef nonnull %23, ptr noundef nonnull %0) #27
  br label %61

61:                                               ; preds = %55, %47, %37, %31, %13
  %62 = load ptr, ptr @bio_err, align 8, !tbaa !26
  call void @ERR_print_errors(ptr noundef %62) #27
  br label %63

63:                                               ; preds = %52, %61
  %.026 = phi i32 [ 0, %61 ], [ 1, %52 ]
  call void @llvm.lifetime.end.p0(i64 1280, ptr nonnull %4) #27
  ret i32 %.026
}